	.file	"test.cc"
	.text
	.local	_ZStL8__ioinit
	.comm	_ZStL8__ioinit,1,1
	.section	.text._ZNSt6thread2idC2Ev,"axG",@progbits,_ZNSt6thread2idC5Ev,comdat
	.align 2
	.weak	_ZNSt6thread2idC2Ev
	.type	_ZNSt6thread2idC2Ev, @function
_ZNSt6thread2idC2Ev:
.LFB2087:
	.cfi_startproc
	endbr64
	pushq	%rbp
	.cfi_def_cfa_offset 16
	.cfi_offset 6, -16
	movq	%rsp, %rbp
	.cfi_def_cfa_register 6
	movq	%rdi, -8(%rbp)
	movq	-8(%rbp), %rax
	movq	$0, (%rax)
	nop
	popq	%rbp
	.cfi_def_cfa 7, 8
	ret
	.cfi_endproc
.LFE2087:
	.size	_ZNSt6thread2idC2Ev, .-_ZNSt6thread2idC2Ev
	.weak	_ZNSt6thread2idC1Ev
	.set	_ZNSt6thread2idC1Ev,_ZNSt6thread2idC2Ev
	.section	.text._ZNSt6threadD2Ev,"axG",@progbits,_ZNSt6threadD5Ev,comdat
	.align 2
	.weak	_ZNSt6threadD2Ev
	.type	_ZNSt6threadD2Ev, @function
_ZNSt6threadD2Ev:
.LFB2094:
	.cfi_startproc
	endbr64
	pushq	%rbp
	.cfi_def_cfa_offset 16
	.cfi_offset 6, -16
	movq	%rsp, %rbp
	.cfi_def_cfa_register 6
	subq	$16, %rsp
	movq	%rdi, -8(%rbp)
	movq	-8(%rbp), %rax
	movq	%rax, %rdi
	call	_ZNKSt6thread8joinableEv
	testb	%al, %al
	je	.L4
	call	_ZSt9terminatev@PLT
.L4:
	nop
	leave
	.cfi_def_cfa 7, 8
	ret
	.cfi_endproc
.LFE2094:
	.size	_ZNSt6threadD2Ev, .-_ZNSt6threadD2Ev
	.weak	_ZNSt6threadD1Ev
	.set	_ZNSt6threadD1Ev,_ZNSt6threadD2Ev
	.section	.text._ZNKSt6thread8joinableEv,"axG",@progbits,_ZNKSt6thread8joinableEv,comdat
	.align 2
	.weak	_ZNKSt6thread8joinableEv
	.type	_ZNKSt6thread8joinableEv, @function
_ZNKSt6thread8joinableEv:
.LFB2102:
	.cfi_startproc
	endbr64
	pushq	%rbp
	.cfi_def_cfa_offset 16
	.cfi_offset 6, -16
	movq	%rsp, %rbp
	.cfi_def_cfa_register 6
	subq	$32, %rsp
	movq	%rdi, -24(%rbp)
	movq	%fs:40, %rax
	movq	%rax, -8(%rbp)
	xorl	%eax, %eax
	leaq	-16(%rbp), %rax
	movq	%rax, %rdi
	call	_ZNSt6thread2idC1Ev
	movq	-16(%rbp), %rax
	movq	-24(%rbp), %rdx
	movq	%rax, %rsi
	movq	(%rdx), %rdi
	call	_ZSteqNSt6thread2idES0_
	xorl	$1, %eax
	movq	-8(%rbp), %rdx
	subq	%fs:40, %rdx
	je	.L7
	call	__stack_chk_fail@PLT
.L7:
	leave
	.cfi_def_cfa 7, 8
	ret
	.cfi_endproc
.LFE2102:
	.size	_ZNKSt6thread8joinableEv, .-_ZNKSt6thread8joinableEv
	.section	.text._ZSteqNSt6thread2idES0_,"axG",@progbits,_ZSteqNSt6thread2idES0_,comdat
	.weak	_ZSteqNSt6thread2idES0_
	.type	_ZSteqNSt6thread2idES0_, @function
_ZSteqNSt6thread2idES0_:
.LFB2111:
	.cfi_startproc
	endbr64
	pushq	%rbp
	.cfi_def_cfa_offset 16
	.cfi_offset 6, -16
	movq	%rsp, %rbp
	.cfi_def_cfa_register 6
	movq	%rdi, -8(%rbp)
	movq	%rsi, -16(%rbp)
	movq	-8(%rbp), %rdx
	movq	-16(%rbp), %rax
	cmpq	%rax, %rdx
	sete	%al
	popq	%rbp
	.cfi_def_cfa 7, 8
	ret
	.cfi_endproc
.LFE2111:
	.size	_ZSteqNSt6thread2idES0_, .-_ZSteqNSt6thread2idES0_
	.text
	.globl	_Z4funcv
	.type	_Z4funcv, @function
_Z4funcv:
.LFB2410:
	.cfi_startproc
	endbr64
	pushq	%rbp
	.cfi_def_cfa_offset 16
	.cfi_offset 6, -16
	movq	%rsp, %rbp
	.cfi_def_cfa_register 6
	subq	$16, %rsp
	call	_ZN7SingtonIiE8instanceEv
	movq	%rax, -8(%rbp)
	nop
	leave
	.cfi_def_cfa 7, 8
	ret
	.cfi_endproc
.LFE2410:
	.size	_Z4funcv, .-_Z4funcv
	.globl	main
	.type	main, @function
main:
.LFB2411:
	.cfi_startproc
	.cfi_personality 0x9b,DW.ref.__gxx_personality_v0
	.cfi_lsda 0x1b,.LLSDA2411
	endbr64
	pushq	%rbp
	.cfi_def_cfa_offset 16
	.cfi_offset 6, -16
	movq	%rsp, %rbp
	.cfi_def_cfa_register 6
	pushq	%rbx
	subq	$40, %rsp
	.cfi_offset 3, -24
	movq	%fs:40, %rax
	movq	%rax, -24(%rbp)
	xorl	%eax, %eax
	leaq	-48(%rbp), %rax
	leaq	_Z4funcv(%rip), %rdx
	movq	%rdx, %rsi
	movq	%rax, %rdi
.LEHB0:
	call	_ZNSt6threadC1IRFvvEJEvEEOT_DpOT0_
.LEHE0:
	leaq	-40(%rbp), %rax
	leaq	_Z4funcv(%rip), %rdx
	movq	%rdx, %rsi
	movq	%rax, %rdi
.LEHB1:
	call	_ZNSt6threadC1IRFvvEJEvEEOT_DpOT0_
.LEHE1:
	leaq	-32(%rbp), %rax
	leaq	_Z4funcv(%rip), %rdx
	movq	%rdx, %rsi
	movq	%rax, %rdi
.LEHB2:
	call	_ZNSt6threadC1IRFvvEJEvEEOT_DpOT0_
.LEHE2:
	leaq	-48(%rbp), %rax
	movq	%rax, %rdi
.LEHB3:
	call	_ZNSt6thread4joinEv@PLT
	leaq	-40(%rbp), %rax
	movq	%rax, %rdi
	call	_ZNSt6thread4joinEv@PLT
	leaq	-32(%rbp), %rax
	movq	%rax, %rdi
	call	_ZNSt6thread4joinEv@PLT
.LEHE3:
	leaq	-32(%rbp), %rax
	movq	%rax, %rdi
	call	_ZNSt6threadD1Ev
	leaq	-40(%rbp), %rax
	movq	%rax, %rdi
	call	_ZNSt6threadD1Ev
	leaq	-48(%rbp), %rax
	movq	%rax, %rdi
	call	_ZNSt6threadD1Ev
	movl	$0, %eax
	movq	-24(%rbp), %rdx
	subq	%fs:40, %rdx
	je	.L16
	jmp	.L20
.L19:
	endbr64
	movq	%rax, %rbx
	leaq	-32(%rbp), %rax
	movq	%rax, %rdi
	call	_ZNSt6threadD1Ev
	jmp	.L14
.L18:
	endbr64
	movq	%rax, %rbx
.L14:
	leaq	-40(%rbp), %rax
	movq	%rax, %rdi
	call	_ZNSt6threadD1Ev
	jmp	.L15
.L17:
	endbr64
	movq	%rax, %rbx
.L15:
	leaq	-48(%rbp), %rax
	movq	%rax, %rdi
	call	_ZNSt6threadD1Ev
	movq	%rbx, %rax
	movq	%rax, %rdi
.LEHB4:
	call	_Unwind_Resume@PLT
.LEHE4:
.L20:
	call	__stack_chk_fail@PLT
.L16:
	movq	-8(%rbp), %rbx
	leave
	.cfi_def_cfa 7, 8
	ret
	.cfi_endproc
.LFE2411:
	.globl	__gxx_personality_v0
	.section	.gcc_except_table,"a",@progbits
.LLSDA2411:
	.byte	0xff
	.byte	0xff
	.byte	0x1
	.uleb128 .LLSDACSE2411-.LLSDACSB2411
.LLSDACSB2411:
	.uleb128 .LEHB0-.LFB2411
	.uleb128 .LEHE0-.LEHB0
	.uleb128 0
	.uleb128 0
	.uleb128 .LEHB1-.LFB2411
	.uleb128 .LEHE1-.LEHB1
	.uleb128 .L17-.LFB2411
	.uleb128 0
	.uleb128 .LEHB2-.LFB2411
	.uleb128 .LEHE2-.LEHB2
	.uleb128 .L18-.LFB2411
	.uleb128 0
	.uleb128 .LEHB3-.LFB2411
	.uleb128 .LEHE3-.LEHB3
	.uleb128 .L19-.LFB2411
	.uleb128 0
	.uleb128 .LEHB4-.LFB2411
	.uleb128 .LEHE4-.LEHB4
	.uleb128 0
	.uleb128 0
.LLSDACSE2411:
	.text
	.size	main, .-main
	.section	.text._ZN7SingtonIiE8instanceEv,"axG",@progbits,_ZN7SingtonIiE8instanceEv,comdat
	.weak	_ZN7SingtonIiE8instanceEv
	.type	_ZN7SingtonIiE8instanceEv, @function
_ZN7SingtonIiE8instanceEv:
.LFB2701:
	.cfi_startproc
	endbr64
	pushq	%rbp
	.cfi_def_cfa_offset 16
	.cfi_offset 6, -16
	movq	%rsp, %rbp
	.cfi_def_cfa_register 6
	leaq	_ZN7SingtonIiE4initEv(%rip), %rax
	movq	%rax, %rsi
	leaq	_ZN7SingtonIiE5once_E(%rip), %rax
	movq	%rax, %rdi
	call	pthread_once@PLT
	movq	_ZN7SingtonIiE6value_E(%rip), %rax
	popq	%rbp
	.cfi_def_cfa 7, 8
	ret
	.cfi_endproc
.LFE2701:
	.size	_ZN7SingtonIiE8instanceEv, .-_ZN7SingtonIiE8instanceEv
	.section	.text._ZNSt6threadC2IRFvvEJEvEEOT_DpOT0_,"axG",@progbits,_ZNSt6threadC5IRFvvEJEvEEOT_DpOT0_,comdat
	.align 2
	.weak	_ZNSt6threadC2IRFvvEJEvEEOT_DpOT0_
	.type	_ZNSt6threadC2IRFvvEJEvEEOT_DpOT0_, @function
_ZNSt6threadC2IRFvvEJEvEEOT_DpOT0_:
.LFB2714:
	.cfi_startproc
	.cfi_personality 0x9b,DW.ref.__gxx_personality_v0
	.cfi_lsda 0x1b,.LLSDA2714
	endbr64
	pushq	%rbp
	.cfi_def_cfa_offset 16
	.cfi_offset 6, -16
	movq	%rsp, %rbp
	.cfi_def_cfa_register 6
	pushq	%rbx
	subq	$72, %rsp
	.cfi_offset 3, -24
	movq	%rdi, -56(%rbp)
	movq	%rsi, -64(%rbp)
	movq	%fs:40, %rax
	movq	%rax, -24(%rbp)
	xorl	%eax, %eax
	movq	-56(%rbp), %rax
	movq	%rax, %rdi
	call	_ZNSt6thread2idC1Ev
	movq	$0, -32(%rbp)
	movq	-64(%rbp), %rax
	movq	%rax, %rdi
	call	_ZSt7forwardIRFvvEEOT_RNSt16remove_referenceIS2_E4typeE
	movq	%rax, %rbx
	movl	$16, %edi
.LEHB5:
	call	_Znwm@PLT
.LEHE5:
	movq	%rax, %rdi
	movq	%rbx, %rsi
	movq	%rdi, -72(%rbp)
.LEHB6:
	call	_ZNSt6thread11_State_implINS_8_InvokerISt5tupleIJPFvvEEEEEEC1IJRS3_EEEDpOT_
.LEHE6:
	leaq	-40(%rbp), %rax
	movq	-72(%rbp), %rsi
	movq	%rax, %rdi
	call	_ZNSt10unique_ptrINSt6thread6_StateESt14default_deleteIS1_EEC1IS3_vEEPS1_
	leaq	-40(%rbp), %rcx
	movq	-56(%rbp), %rax
	movl	$0, %edx
	movq	%rcx, %rsi
	movq	%rax, %rdi
.LEHB7:
	call	_ZNSt6thread15_M_start_threadESt10unique_ptrINS_6_StateESt14default_deleteIS1_EEPFvvE@PLT
.LEHE7:
	leaq	-40(%rbp), %rax
	movq	%rax, %rdi
	call	_ZNSt10unique_ptrINSt6thread6_StateESt14default_deleteIS1_EED1Ev
	nop
	movq	-24(%rbp), %rax
	subq	%fs:40, %rax
	je	.L26
	jmp	.L29
.L27:
	endbr64
	movq	%rax, %rbx
	movl	$16, %esi
	movq	-72(%rbp), %rdi
	call	_ZdlPvm@PLT
	movq	%rbx, %rax
	movq	%rax, %rdi
.LEHB8:
	call	_Unwind_Resume@PLT
.L28:
	endbr64
	movq	%rax, %rbx
	leaq	-40(%rbp), %rax
	movq	%rax, %rdi
	call	_ZNSt10unique_ptrINSt6thread6_StateESt14default_deleteIS1_EED1Ev
	movq	%rbx, %rax
	movq	%rax, %rdi
	call	_Unwind_Resume@PLT
.LEHE8:
.L29:
	call	__stack_chk_fail@PLT
.L26:
	movq	-8(%rbp), %rbx
	leave
	.cfi_def_cfa 7, 8
	ret
	.cfi_endproc
.LFE2714:
	.section	.gcc_except_table
.LLSDA2714:
	.byte	0xff
	.byte	0xff
	.byte	0x1
	.uleb128 .LLSDACSE2714-.LLSDACSB2714
.LLSDACSB2714:
	.uleb128 .LEHB5-.LFB2714
	.uleb128 .LEHE5-.LEHB5
	.uleb128 0
	.uleb128 0
	.uleb128 .LEHB6-.LFB2714
	.uleb128 .LEHE6-.LEHB6
	.uleb128 .L27-.LFB2714
	.uleb128 0
	.uleb128 .LEHB7-.LFB2714
	.uleb128 .LEHE7-.LEHB7
	.uleb128 .L28-.LFB2714
	.uleb128 0
	.uleb128 .LEHB8-.LFB2714
	.uleb128 .LEHE8-.LEHB8
	.uleb128 0
	.uleb128 0
.LLSDACSE2714:
	.section	.text._ZNSt6threadC2IRFvvEJEvEEOT_DpOT0_,"axG",@progbits,_ZNSt6threadC5IRFvvEJEvEEOT_DpOT0_,comdat
	.size	_ZNSt6threadC2IRFvvEJEvEEOT_DpOT0_, .-_ZNSt6threadC2IRFvvEJEvEEOT_DpOT0_
	.weak	_ZNSt6threadC1IRFvvEJEvEEOT_DpOT0_
	.set	_ZNSt6threadC1IRFvvEJEvEEOT_DpOT0_,_ZNSt6threadC2IRFvvEJEvEEOT_DpOT0_
	.section	.rodata
.LC0:
	.string	"init"
	.section	.text._ZN7SingtonIiE4initEv,"axG",@progbits,_ZN7SingtonIiE4initEv,comdat
	.weak	_ZN7SingtonIiE4initEv
	.type	_ZN7SingtonIiE4initEv, @function
_ZN7SingtonIiE4initEv:
.LFB2804:
	.cfi_startproc
	endbr64
	pushq	%rbp
	.cfi_def_cfa_offset 16
	.cfi_offset 6, -16
	movq	%rsp, %rbp
	.cfi_def_cfa_register 6
	leaq	.LC0(%rip), %rax
	movq	%rax, %rdi
	call	puts@PLT
	movl	$4, %edi
	call	_Znwm@PLT
	movl	$0, (%rax)
	movq	%rax, _ZN7SingtonIiE6value_E(%rip)
	nop
	popq	%rbp
	.cfi_def_cfa 7, 8
	ret
	.cfi_endproc
.LFE2804:
	.size	_ZN7SingtonIiE4initEv, .-_ZN7SingtonIiE4initEv
	.section	.text._ZSt7forwardIRFvvEEOT_RNSt16remove_referenceIS2_E4typeE,"axG",@progbits,_ZSt7forwardIRFvvEEOT_RNSt16remove_referenceIS2_E4typeE,comdat
	.weak	_ZSt7forwardIRFvvEEOT_RNSt16remove_referenceIS2_E4typeE
	.type	_ZSt7forwardIRFvvEEOT_RNSt16remove_referenceIS2_E4typeE, @function
_ZSt7forwardIRFvvEEOT_RNSt16remove_referenceIS2_E4typeE:
.LFB2805:
	.cfi_startproc
	endbr64
	pushq	%rbp
	.cfi_def_cfa_offset 16
	.cfi_offset 6, -16
	movq	%rsp, %rbp
	.cfi_def_cfa_register 6
	movq	%rdi, -8(%rbp)
	movq	-8(%rbp), %rax
	popq	%rbp
	.cfi_def_cfa 7, 8
	ret
	.cfi_endproc
.LFE2805:
	.size	_ZSt7forwardIRFvvEEOT_RNSt16remove_referenceIS2_E4typeE, .-_ZSt7forwardIRFvvEEOT_RNSt16remove_referenceIS2_E4typeE
	.section	.text._ZNSt6thread6_StateC2Ev,"axG",@progbits,_ZNSt6thread6_StateC5Ev,comdat
	.align 2
	.weak	_ZNSt6thread6_StateC2Ev
	.type	_ZNSt6thread6_StateC2Ev, @function
_ZNSt6thread6_StateC2Ev:
.LFB2808:
	.cfi_startproc
	endbr64
	pushq	%rbp
	.cfi_def_cfa_offset 16
	.cfi_offset 6, -16
	movq	%rsp, %rbp
	.cfi_def_cfa_register 6
	movq	%rdi, -8(%rbp)
	leaq	16+_ZTVNSt6thread6_StateE(%rip), %rdx
	movq	-8(%rbp), %rax
	movq	%rdx, (%rax)
	nop
	popq	%rbp
	.cfi_def_cfa 7, 8
	ret
	.cfi_endproc
.LFE2808:
	.size	_ZNSt6thread6_StateC2Ev, .-_ZNSt6thread6_StateC2Ev
	.weak	_ZNSt6thread6_StateC1Ev
	.set	_ZNSt6thread6_StateC1Ev,_ZNSt6thread6_StateC2Ev
	.section	.text._ZNSt6thread11_State_implINS_8_InvokerISt5tupleIJPFvvEEEEEEC2IJRS3_EEEDpOT_,"axG",@progbits,_ZNSt6thread11_State_implINS_8_InvokerISt5tupleIJPFvvEEEEEEC5IJRS3_EEEDpOT_,comdat
	.align 2
	.weak	_ZNSt6thread11_State_implINS_8_InvokerISt5tupleIJPFvvEEEEEEC2IJRS3_EEEDpOT_
	.type	_ZNSt6thread11_State_implINS_8_InvokerISt5tupleIJPFvvEEEEEEC2IJRS3_EEEDpOT_, @function
_ZNSt6thread11_State_implINS_8_InvokerISt5tupleIJPFvvEEEEEEC2IJRS3_EEEDpOT_:
.LFB2810:
	.cfi_startproc
	.cfi_personality 0x9b,DW.ref.__gxx_personality_v0
	.cfi_lsda 0x1b,.LLSDA2810
	endbr64
	pushq	%rbp
	.cfi_def_cfa_offset 16
	.cfi_offset 6, -16
	movq	%rsp, %rbp
	.cfi_def_cfa_register 6
	pushq	%rbx
	subq	$24, %rsp
	.cfi_offset 3, -24
	movq	%rdi, -24(%rbp)
	movq	%rsi, -32(%rbp)
	movq	-24(%rbp), %rax
	movq	%rax, %rdi
	call	_ZNSt6thread6_StateC2Ev
	leaq	16+_ZTVNSt6thread11_State_implINS_8_InvokerISt5tupleIJPFvvEEEEEEE(%rip), %rdx
	movq	-24(%rbp), %rax
	movq	%rdx, (%rax)
	movq	-24(%rbp), %rax
	leaq	8(%rax), %rbx
	movq	-32(%rbp), %rax
	movq	%rax, %rdi
	call	_ZSt7forwardIRFvvEEOT_RNSt16remove_referenceIS2_E4typeE
	movq	%rax, %rsi
	movq	%rbx, %rdi
.LEHB9:
	call	_ZNSt6thread8_InvokerISt5tupleIJPFvvEEEEC1IJRS2_EEEDpOT_
.LEHE9:
	jmp	.L37
.L36:
	endbr64
	movq	%rax, %rbx
	movq	-24(%rbp), %rax
	movq	%rax, %rdi
	call	_ZNSt6thread6_StateD2Ev@PLT
	movq	%rbx, %rax
	movq	%rax, %rdi
.LEHB10:
	call	_Unwind_Resume@PLT
.LEHE10:
.L37:
	movq	-8(%rbp), %rbx
	leave
	.cfi_def_cfa 7, 8
	ret
	.cfi_endproc
.LFE2810:
	.section	.gcc_except_table
.LLSDA2810:
	.byte	0xff
	.byte	0xff
	.byte	0x1
	.uleb128 .LLSDACSE2810-.LLSDACSB2810
.LLSDACSB2810:
	.uleb128 .LEHB9-.LFB2810
	.uleb128 .LEHE9-.LEHB9
	.uleb128 .L36-.LFB2810
	.uleb128 0
	.uleb128 .LEHB10-.LFB2810
	.uleb128 .LEHE10-.LEHB10
	.uleb128 0
	.uleb128 0
.LLSDACSE2810:
	.section	.text._ZNSt6thread11_State_implINS_8_InvokerISt5tupleIJPFvvEEEEEEC2IJRS3_EEEDpOT_,"axG",@progbits,_ZNSt6thread11_State_implINS_8_InvokerISt5tupleIJPFvvEEEEEEC5IJRS3_EEEDpOT_,comdat
	.size	_ZNSt6thread11_State_implINS_8_InvokerISt5tupleIJPFvvEEEEEEC2IJRS3_EEEDpOT_, .-_ZNSt6thread11_State_implINS_8_InvokerISt5tupleIJPFvvEEEEEEC2IJRS3_EEEDpOT_
	.weak	_ZNSt6thread11_State_implINS_8_InvokerISt5tupleIJPFvvEEEEEEC1IJRS3_EEEDpOT_
	.set	_ZNSt6thread11_State_implINS_8_InvokerISt5tupleIJPFvvEEEEEEC1IJRS3_EEEDpOT_,_ZNSt6thread11_State_implINS_8_InvokerISt5tupleIJPFvvEEEEEEC2IJRS3_EEEDpOT_
	.section	.text._ZNSt15__uniq_ptr_dataINSt6thread6_StateESt14default_deleteIS1_ELb1ELb1EECI2St15__uniq_ptr_implIS1_S3_EEPS1_,"axG",@progbits,_ZNSt15__uniq_ptr_dataINSt6thread6_StateESt14default_deleteIS1_ELb1ELb1EECI5St15__uniq_ptr_implIS1_S3_EEPS1_,comdat
	.align 2
	.weak	_ZNSt15__uniq_ptr_dataINSt6thread6_StateESt14default_deleteIS1_ELb1ELb1EECI2St15__uniq_ptr_implIS1_S3_EEPS1_
	.type	_ZNSt15__uniq_ptr_dataINSt6thread6_StateESt14default_deleteIS1_ELb1ELb1EECI2St15__uniq_ptr_implIS1_S3_EEPS1_, @function
_ZNSt15__uniq_ptr_dataINSt6thread6_StateESt14default_deleteIS1_ELb1ELb1EECI2St15__uniq_ptr_implIS1_S3_EEPS1_:
.LFB2814:
	.cfi_startproc
	endbr64
	pushq	%rbp
	.cfi_def_cfa_offset 16
	.cfi_offset 6, -16
	movq	%rsp, %rbp
	.cfi_def_cfa_register 6
	subq	$16, %rsp
	movq	%rdi, -8(%rbp)
	movq	%rsi, -16(%rbp)
	movq	-8(%rbp), %rax
	movq	-16(%rbp), %rdx
	movq	%rdx, %rsi
	movq	%rax, %rdi
	call	_ZNSt15__uniq_ptr_implINSt6thread6_StateESt14default_deleteIS1_EEC2EPS1_
	nop
	leave
	.cfi_def_cfa 7, 8
	ret
	.cfi_endproc
.LFE2814:
	.size	_ZNSt15__uniq_ptr_dataINSt6thread6_StateESt14default_deleteIS1_ELb1ELb1EECI2St15__uniq_ptr_implIS1_S3_EEPS1_, .-_ZNSt15__uniq_ptr_dataINSt6thread6_StateESt14default_deleteIS1_ELb1ELb1EECI2St15__uniq_ptr_implIS1_S3_EEPS1_
	.weak	_ZNSt15__uniq_ptr_dataINSt6thread6_StateESt14default_deleteIS1_ELb1ELb1EECI1St15__uniq_ptr_implIS1_S3_EEPS1_
	.set	_ZNSt15__uniq_ptr_dataINSt6thread6_StateESt14default_deleteIS1_ELb1ELb1EECI1St15__uniq_ptr_implIS1_S3_EEPS1_,_ZNSt15__uniq_ptr_dataINSt6thread6_StateESt14default_deleteIS1_ELb1ELb1EECI2St15__uniq_ptr_implIS1_S3_EEPS1_
	.section	.text._ZNSt10unique_ptrINSt6thread6_StateESt14default_deleteIS1_EEC2IS3_vEEPS1_,"axG",@progbits,_ZNSt10unique_ptrINSt6thread6_StateESt14default_deleteIS1_EEC5IS3_vEEPS1_,comdat
	.align 2
	.weak	_ZNSt10unique_ptrINSt6thread6_StateESt14default_deleteIS1_EEC2IS3_vEEPS1_
	.type	_ZNSt10unique_ptrINSt6thread6_StateESt14default_deleteIS1_EEC2IS3_vEEPS1_, @function
_ZNSt10unique_ptrINSt6thread6_StateESt14default_deleteIS1_EEC2IS3_vEEPS1_:
.LFB2816:
	.cfi_startproc
	.cfi_personality 0x9b,DW.ref.__gxx_personality_v0
	.cfi_lsda 0x1b,.LLSDA2816
	endbr64
	pushq	%rbp
	.cfi_def_cfa_offset 16
	.cfi_offset 6, -16
	movq	%rsp, %rbp
	.cfi_def_cfa_register 6
	subq	$16, %rsp
	movq	%rdi, -8(%rbp)
	movq	%rsi, -16(%rbp)
	movq	-8(%rbp), %rax
	movq	-16(%rbp), %rdx
	movq	%rdx, %rsi
	movq	%rax, %rdi
	call	_ZNSt15__uniq_ptr_dataINSt6thread6_StateESt14default_deleteIS1_ELb1ELb1EECI1St15__uniq_ptr_implIS1_S3_EEPS1_
	nop
	leave
	.cfi_def_cfa 7, 8
	ret
	.cfi_endproc
.LFE2816:
	.section	.gcc_except_table
.LLSDA2816:
	.byte	0xff
	.byte	0xff
	.byte	0x1
	.uleb128 .LLSDACSE2816-.LLSDACSB2816
.LLSDACSB2816:
.LLSDACSE2816:
	.section	.text._ZNSt10unique_ptrINSt6thread6_StateESt14default_deleteIS1_EEC2IS3_vEEPS1_,"axG",@progbits,_ZNSt10unique_ptrINSt6thread6_StateESt14default_deleteIS1_EEC5IS3_vEEPS1_,comdat
	.size	_ZNSt10unique_ptrINSt6thread6_StateESt14default_deleteIS1_EEC2IS3_vEEPS1_, .-_ZNSt10unique_ptrINSt6thread6_StateESt14default_deleteIS1_EEC2IS3_vEEPS1_
	.weak	_ZNSt10unique_ptrINSt6thread6_StateESt14default_deleteIS1_EEC1IS3_vEEPS1_
	.set	_ZNSt10unique_ptrINSt6thread6_StateESt14default_deleteIS1_EEC1IS3_vEEPS1_,_ZNSt10unique_ptrINSt6thread6_StateESt14default_deleteIS1_EEC2IS3_vEEPS1_
	.section	.text._ZNSt10unique_ptrINSt6thread6_StateESt14default_deleteIS1_EED2Ev,"axG",@progbits,_ZNSt10unique_ptrINSt6thread6_StateESt14default_deleteIS1_EED5Ev,comdat
	.align 2
	.weak	_ZNSt10unique_ptrINSt6thread6_StateESt14default_deleteIS1_EED2Ev
	.type	_ZNSt10unique_ptrINSt6thread6_StateESt14default_deleteIS1_EED2Ev, @function
_ZNSt10unique_ptrINSt6thread6_StateESt14default_deleteIS1_EED2Ev:
.LFB2819:
	.cfi_startproc
	endbr64
	pushq	%rbp
	.cfi_def_cfa_offset 16
	.cfi_offset 6, -16
	movq	%rsp, %rbp
	.cfi_def_cfa_register 6
	pushq	%rbx
	subq	$40, %rsp
	.cfi_offset 3, -24
	movq	%rdi, -40(%rbp)
	movq	-40(%rbp), %rax
	movq	%rax, %rdi
	call	_ZNSt15__uniq_ptr_implINSt6thread6_StateESt14default_deleteIS1_EE6_M_ptrEv
	movq	%rax, -24(%rbp)
	movq	-24(%rbp), %rax
	movq	(%rax), %rax
	testq	%rax, %rax
	je	.L41
	movq	-40(%rbp), %rax
	movq	%rax, %rdi
	call	_ZNSt10unique_ptrINSt6thread6_StateESt14default_deleteIS1_EE11get_deleterEv
	movq	%rax, %rbx
	movq	-24(%rbp), %rax
	movq	%rax, %rdi
	call	_ZSt4moveIRPNSt6thread6_StateEEONSt16remove_referenceIT_E4typeEOS5_
	movq	(%rax), %rax
	movq	%rax, %rsi
	movq	%rbx, %rdi
	call	_ZNKSt14default_deleteINSt6thread6_StateEEclEPS1_
.L41:
	movq	-24(%rbp), %rax
	movq	$0, (%rax)
	nop
	movq	-8(%rbp), %rbx
	leave
	.cfi_def_cfa 7, 8
	ret
	.cfi_endproc
.LFE2819:
	.size	_ZNSt10unique_ptrINSt6thread6_StateESt14default_deleteIS1_EED2Ev, .-_ZNSt10unique_ptrINSt6thread6_StateESt14default_deleteIS1_EED2Ev
	.weak	_ZNSt10unique_ptrINSt6thread6_StateESt14default_deleteIS1_EED1Ev
	.set	_ZNSt10unique_ptrINSt6thread6_StateESt14default_deleteIS1_EED1Ev,_ZNSt10unique_ptrINSt6thread6_StateESt14default_deleteIS1_EED2Ev
	.section	.text._ZNSt6thread8_InvokerISt5tupleIJPFvvEEEEC2IJRS2_EEEDpOT_,"axG",@progbits,_ZNSt6thread8_InvokerISt5tupleIJPFvvEEEEC5IJRS2_EEEDpOT_,comdat
	.align 2
	.weak	_ZNSt6thread8_InvokerISt5tupleIJPFvvEEEEC2IJRS2_EEEDpOT_
	.type	_ZNSt6thread8_InvokerISt5tupleIJPFvvEEEEC2IJRS2_EEEDpOT_, @function
_ZNSt6thread8_InvokerISt5tupleIJPFvvEEEEC2IJRS2_EEEDpOT_:
.LFB2866:
	.cfi_startproc
	endbr64
	pushq	%rbp
	.cfi_def_cfa_offset 16
	.cfi_offset 6, -16
	movq	%rsp, %rbp
	.cfi_def_cfa_register 6
	pushq	%rbx
	subq	$40, %rsp
	.cfi_offset 3, -24
	movq	%rdi, -40(%rbp)
	movq	%rsi, -48(%rbp)
	movq	%fs:40, %rax
	movq	%rax, -24(%rbp)
	xorl	%eax, %eax
	movq	-40(%rbp), %rbx
	movq	-48(%rbp), %rax
	movq	%rax, %rdi
	call	_ZSt7forwardIRFvvEEOT_RNSt16remove_referenceIS2_E4typeE
	movq	%rax, -32(%rbp)
	leaq	-32(%rbp), %rax
	movq	%rax, %rsi
	movq	%rbx, %rdi
	call	_ZNSt5tupleIJPFvvEEEC1ILb1ELb1EEERKS1_
	nop
	movq	-24(%rbp), %rax
	subq	%fs:40, %rax
	je	.L43
	call	__stack_chk_fail@PLT
.L43:
	movq	-8(%rbp), %rbx
	leave
	.cfi_def_cfa 7, 8
	ret
	.cfi_endproc
.LFE2866:
	.size	_ZNSt6thread8_InvokerISt5tupleIJPFvvEEEEC2IJRS2_EEEDpOT_, .-_ZNSt6thread8_InvokerISt5tupleIJPFvvEEEEC2IJRS2_EEEDpOT_
	.weak	_ZNSt6thread8_InvokerISt5tupleIJPFvvEEEEC1IJRS2_EEEDpOT_
	.set	_ZNSt6thread8_InvokerISt5tupleIJPFvvEEEEC1IJRS2_EEEDpOT_,_ZNSt6thread8_InvokerISt5tupleIJPFvvEEEEC2IJRS2_EEEDpOT_
	.section	.text._ZNSt15__uniq_ptr_implINSt6thread6_StateESt14default_deleteIS1_EEC2EPS1_,"axG",@progbits,_ZNSt15__uniq_ptr_implINSt6thread6_StateESt14default_deleteIS1_EEC5EPS1_,comdat
	.align 2
	.weak	_ZNSt15__uniq_ptr_implINSt6thread6_StateESt14default_deleteIS1_EEC2EPS1_
	.type	_ZNSt15__uniq_ptr_implINSt6thread6_StateESt14default_deleteIS1_EEC2EPS1_, @function
_ZNSt15__uniq_ptr_implINSt6thread6_StateESt14default_deleteIS1_EEC2EPS1_:
.LFB2870:
	.cfi_startproc
	endbr64
	pushq	%rbp
	.cfi_def_cfa_offset 16
	.cfi_offset 6, -16
	movq	%rsp, %rbp
	.cfi_def_cfa_register 6
	pushq	%rbx
	subq	$24, %rsp
	.cfi_offset 3, -24
	movq	%rdi, -24(%rbp)
	movq	%rsi, -32(%rbp)
	movq	-24(%rbp), %rax
	movq	%rax, %rdi
	call	_ZNSt5tupleIJPNSt6thread6_StateESt14default_deleteIS1_EEEC1ILb1ELb1EEEv
	movq	-32(%rbp), %rbx
	movq	-24(%rbp), %rax
	movq	%rax, %rdi
	call	_ZNSt15__uniq_ptr_implINSt6thread6_StateESt14default_deleteIS1_EE6_M_ptrEv
	movq	%rbx, (%rax)
	nop
	movq	-8(%rbp), %rbx
	leave
	.cfi_def_cfa 7, 8
	ret
	.cfi_endproc
.LFE2870:
	.size	_ZNSt15__uniq_ptr_implINSt6thread6_StateESt14default_deleteIS1_EEC2EPS1_, .-_ZNSt15__uniq_ptr_implINSt6thread6_StateESt14default_deleteIS1_EEC2EPS1_
	.weak	_ZNSt15__uniq_ptr_implINSt6thread6_StateESt14default_deleteIS1_EEC1EPS1_
	.set	_ZNSt15__uniq_ptr_implINSt6thread6_StateESt14default_deleteIS1_EEC1EPS1_,_ZNSt15__uniq_ptr_implINSt6thread6_StateESt14default_deleteIS1_EEC2EPS1_
	.section	.text._ZNSt15__uniq_ptr_implINSt6thread6_StateESt14default_deleteIS1_EE6_M_ptrEv,"axG",@progbits,_ZNSt15__uniq_ptr_implINSt6thread6_StateESt14default_deleteIS1_EE6_M_ptrEv,comdat
	.align 2
	.weak	_ZNSt15__uniq_ptr_implINSt6thread6_StateESt14default_deleteIS1_EE6_M_ptrEv
	.type	_ZNSt15__uniq_ptr_implINSt6thread6_StateESt14default_deleteIS1_EE6_M_ptrEv, @function
_ZNSt15__uniq_ptr_implINSt6thread6_StateESt14default_deleteIS1_EE6_M_ptrEv:
.LFB2872:
	.cfi_startproc
	endbr64
	pushq	%rbp
	.cfi_def_cfa_offset 16
	.cfi_offset 6, -16
	movq	%rsp, %rbp
	.cfi_def_cfa_register 6
	subq	$16, %rsp
	movq	%rdi, -8(%rbp)
	movq	-8(%rbp), %rax
	movq	%rax, %rdi
	call	_ZSt3getILm0EJPNSt6thread6_StateESt14default_deleteIS1_EEERNSt13tuple_elementIXT_ESt5tupleIJDpT0_EEE4typeERS9_
	leave
	.cfi_def_cfa 7, 8
	ret
	.cfi_endproc
.LFE2872:
	.size	_ZNSt15__uniq_ptr_implINSt6thread6_StateESt14default_deleteIS1_EE6_M_ptrEv, .-_ZNSt15__uniq_ptr_implINSt6thread6_StateESt14default_deleteIS1_EE6_M_ptrEv
	.section	.text._ZNSt10unique_ptrINSt6thread6_StateESt14default_deleteIS1_EE11get_deleterEv,"axG",@progbits,_ZNSt10unique_ptrINSt6thread6_StateESt14default_deleteIS1_EE11get_deleterEv,comdat
	.align 2
	.weak	_ZNSt10unique_ptrINSt6thread6_StateESt14default_deleteIS1_EE11get_deleterEv
	.type	_ZNSt10unique_ptrINSt6thread6_StateESt14default_deleteIS1_EE11get_deleterEv, @function
_ZNSt10unique_ptrINSt6thread6_StateESt14default_deleteIS1_EE11get_deleterEv:
.LFB2873:
	.cfi_startproc
	endbr64
	pushq	%rbp
	.cfi_def_cfa_offset 16
	.cfi_offset 6, -16
	movq	%rsp, %rbp
	.cfi_def_cfa_register 6
	subq	$16, %rsp
	movq	%rdi, -8(%rbp)
	movq	-8(%rbp), %rax
	movq	%rax, %rdi
	call	_ZNSt15__uniq_ptr_implINSt6thread6_StateESt14default_deleteIS1_EE10_M_deleterEv
	leave
	.cfi_def_cfa 7, 8
	ret
	.cfi_endproc
.LFE2873:
	.size	_ZNSt10unique_ptrINSt6thread6_StateESt14default_deleteIS1_EE11get_deleterEv, .-_ZNSt10unique_ptrINSt6thread6_StateESt14default_deleteIS1_EE11get_deleterEv
	.section	.text._ZSt4moveIRPNSt6thread6_StateEEONSt16remove_referenceIT_E4typeEOS5_,"axG",@progbits,_ZSt4moveIRPNSt6thread6_StateEEONSt16remove_referenceIT_E4typeEOS5_,comdat
	.weak	_ZSt4moveIRPNSt6thread6_StateEEONSt16remove_referenceIT_E4typeEOS5_
	.type	_ZSt4moveIRPNSt6thread6_StateEEONSt16remove_referenceIT_E4typeEOS5_, @function
_ZSt4moveIRPNSt6thread6_StateEEONSt16remove_referenceIT_E4typeEOS5_:
.LFB2874:
	.cfi_startproc
	endbr64
	pushq	%rbp
	.cfi_def_cfa_offset 16
	.cfi_offset 6, -16
	movq	%rsp, %rbp
	.cfi_def_cfa_register 6
	movq	%rdi, -8(%rbp)
	movq	-8(%rbp), %rax
	popq	%rbp
	.cfi_def_cfa 7, 8
	ret
	.cfi_endproc
.LFE2874:
	.size	_ZSt4moveIRPNSt6thread6_StateEEONSt16remove_referenceIT_E4typeEOS5_, .-_ZSt4moveIRPNSt6thread6_StateEEONSt16remove_referenceIT_E4typeEOS5_
	.section	.text._ZNKSt14default_deleteINSt6thread6_StateEEclEPS1_,"axG",@progbits,_ZNKSt14default_deleteINSt6thread6_StateEEclEPS1_,comdat
	.align 2
	.weak	_ZNKSt14default_deleteINSt6thread6_StateEEclEPS1_
	.type	_ZNKSt14default_deleteINSt6thread6_StateEEclEPS1_, @function
_ZNKSt14default_deleteINSt6thread6_StateEEclEPS1_:
.LFB2875:
	.cfi_startproc
	endbr64
	pushq	%rbp
	.cfi_def_cfa_offset 16
	.cfi_offset 6, -16
	movq	%rsp, %rbp
	.cfi_def_cfa_register 6
	subq	$16, %rsp
	movq	%rdi, -8(%rbp)
	movq	%rsi, -16(%rbp)
	movq	-16(%rbp), %rax
	testq	%rax, %rax
	je	.L53
	movq	(%rax), %rdx
	addq	$8, %rdx
	movq	(%rdx), %rdx
	movq	%rax, %rdi
	call	*%rdx
.L53:
	nop
	leave
	.cfi_def_cfa 7, 8
	ret
	.cfi_endproc
.LFE2875:
	.size	_ZNKSt14default_deleteINSt6thread6_StateEEclEPS1_, .-_ZNKSt14default_deleteINSt6thread6_StateEEclEPS1_
	.section	.text._ZNSt5tupleIJPFvvEEEC2ILb1ELb1EEERKS1_,"axG",@progbits,_ZNSt5tupleIJPFvvEEEC5ILb1ELb1EEERKS1_,comdat
	.align 2
	.weak	_ZNSt5tupleIJPFvvEEEC2ILb1ELb1EEERKS1_
	.type	_ZNSt5tupleIJPFvvEEEC2ILb1ELb1EEERKS1_, @function
_ZNSt5tupleIJPFvvEEEC2ILb1ELb1EEERKS1_:
.LFB2921:
	.cfi_startproc
	.cfi_personality 0x9b,DW.ref.__gxx_personality_v0
	.cfi_lsda 0x1b,.LLSDA2921
	endbr64
	pushq	%rbp
	.cfi_def_cfa_offset 16
	.cfi_offset 6, -16
	movq	%rsp, %rbp
	.cfi_def_cfa_register 6
	subq	$16, %rsp
	movq	%rdi, -8(%rbp)
	movq	%rsi, -16(%rbp)
	movq	-8(%rbp), %rax
	movq	-16(%rbp), %rdx
	movq	%rdx, %rsi
	movq	%rax, %rdi
	call	_ZNSt11_Tuple_implILm0EJPFvvEEEC2ERKS1_
	nop
	leave
	.cfi_def_cfa 7, 8
	ret
	.cfi_endproc
.LFE2921:
	.section	.gcc_except_table
.LLSDA2921:
	.byte	0xff
	.byte	0xff
	.byte	0x1
	.uleb128 .LLSDACSE2921-.LLSDACSB2921
.LLSDACSB2921:
.LLSDACSE2921:
	.section	.text._ZNSt5tupleIJPFvvEEEC2ILb1ELb1EEERKS1_,"axG",@progbits,_ZNSt5tupleIJPFvvEEEC5ILb1ELb1EEERKS1_,comdat
	.size	_ZNSt5tupleIJPFvvEEEC2ILb1ELb1EEERKS1_, .-_ZNSt5tupleIJPFvvEEEC2ILb1ELb1EEERKS1_
	.weak	_ZNSt5tupleIJPFvvEEEC1ILb1ELb1EEERKS1_
	.set	_ZNSt5tupleIJPFvvEEEC1ILb1ELb1EEERKS1_,_ZNSt5tupleIJPFvvEEEC2ILb1ELb1EEERKS1_
	.section	.text._ZNSt5tupleIJPNSt6thread6_StateESt14default_deleteIS1_EEEC2ILb1ELb1EEEv,"axG",@progbits,_ZNSt5tupleIJPNSt6thread6_StateESt14default_deleteIS1_EEEC5ILb1ELb1EEEv,comdat
	.align 2
	.weak	_ZNSt5tupleIJPNSt6thread6_StateESt14default_deleteIS1_EEEC2ILb1ELb1EEEv
	.type	_ZNSt5tupleIJPNSt6thread6_StateESt14default_deleteIS1_EEEC2ILb1ELb1EEEv, @function
_ZNSt5tupleIJPNSt6thread6_StateESt14default_deleteIS1_EEEC2ILb1ELb1EEEv:
.LFB2924:
	.cfi_startproc
	.cfi_personality 0x9b,DW.ref.__gxx_personality_v0
	.cfi_lsda 0x1b,.LLSDA2924
	endbr64
	pushq	%rbp
	.cfi_def_cfa_offset 16
	.cfi_offset 6, -16
	movq	%rsp, %rbp
	.cfi_def_cfa_register 6
	subq	$16, %rsp
	movq	%rdi, -8(%rbp)
	movq	-8(%rbp), %rax
	movq	%rax, %rdi
	call	_ZNSt11_Tuple_implILm0EJPNSt6thread6_StateESt14default_deleteIS1_EEEC2Ev
	nop
	leave
	.cfi_def_cfa 7, 8
	ret
	.cfi_endproc
.LFE2924:
	.section	.gcc_except_table
.LLSDA2924:
	.byte	0xff
	.byte	0xff
	.byte	0x1
	.uleb128 .LLSDACSE2924-.LLSDACSB2924
.LLSDACSB2924:
.LLSDACSE2924:
	.section	.text._ZNSt5tupleIJPNSt6thread6_StateESt14default_deleteIS1_EEEC2ILb1ELb1EEEv,"axG",@progbits,_ZNSt5tupleIJPNSt6thread6_StateESt14default_deleteIS1_EEEC5ILb1ELb1EEEv,comdat
	.size	_ZNSt5tupleIJPNSt6thread6_StateESt14default_deleteIS1_EEEC2ILb1ELb1EEEv, .-_ZNSt5tupleIJPNSt6thread6_StateESt14default_deleteIS1_EEEC2ILb1ELb1EEEv
	.weak	_ZNSt5tupleIJPNSt6thread6_StateESt14default_deleteIS1_EEEC1ILb1ELb1EEEv
	.set	_ZNSt5tupleIJPNSt6thread6_StateESt14default_deleteIS1_EEEC1ILb1ELb1EEEv,_ZNSt5tupleIJPNSt6thread6_StateESt14default_deleteIS1_EEEC2ILb1ELb1EEEv
	.section	.text._ZSt3getILm0EJPNSt6thread6_StateESt14default_deleteIS1_EEERNSt13tuple_elementIXT_ESt5tupleIJDpT0_EEE4typeERS9_,"axG",@progbits,_ZSt3getILm0EJPNSt6thread6_StateESt14default_deleteIS1_EEERNSt13tuple_elementIXT_ESt5tupleIJDpT0_EEE4typeERS9_,comdat
	.weak	_ZSt3getILm0EJPNSt6thread6_StateESt14default_deleteIS1_EEERNSt13tuple_elementIXT_ESt5tupleIJDpT0_EEE4typeERS9_
	.type	_ZSt3getILm0EJPNSt6thread6_StateESt14default_deleteIS1_EEERNSt13tuple_elementIXT_ESt5tupleIJDpT0_EEE4typeERS9_, @function
_ZSt3getILm0EJPNSt6thread6_StateESt14default_deleteIS1_EEERNSt13tuple_elementIXT_ESt5tupleIJDpT0_EEE4typeERS9_:
.LFB2926:
	.cfi_startproc
	endbr64
	pushq	%rbp
	.cfi_def_cfa_offset 16
	.cfi_offset 6, -16
	movq	%rsp, %rbp
	.cfi_def_cfa_register 6
	subq	$16, %rsp
	movq	%rdi, -8(%rbp)
	movq	-8(%rbp), %rax
	movq	%rax, %rdi
	call	_ZSt12__get_helperILm0EPNSt6thread6_StateEJSt14default_deleteIS1_EEERT0_RSt11_Tuple_implIXT_EJS5_DpT1_EE
	leave
	.cfi_def_cfa 7, 8
	ret
	.cfi_endproc
.LFE2926:
	.size	_ZSt3getILm0EJPNSt6thread6_StateESt14default_deleteIS1_EEERNSt13tuple_elementIXT_ESt5tupleIJDpT0_EEE4typeERS9_, .-_ZSt3getILm0EJPNSt6thread6_StateESt14default_deleteIS1_EEERNSt13tuple_elementIXT_ESt5tupleIJDpT0_EEE4typeERS9_
	.section	.text._ZNSt15__uniq_ptr_implINSt6thread6_StateESt14default_deleteIS1_EE10_M_deleterEv,"axG",@progbits,_ZNSt15__uniq_ptr_implINSt6thread6_StateESt14default_deleteIS1_EE10_M_deleterEv,comdat
	.align 2
	.weak	_ZNSt15__uniq_ptr_implINSt6thread6_StateESt14default_deleteIS1_EE10_M_deleterEv
	.type	_ZNSt15__uniq_ptr_implINSt6thread6_StateESt14default_deleteIS1_EE10_M_deleterEv, @function
_ZNSt15__uniq_ptr_implINSt6thread6_StateESt14default_deleteIS1_EE10_M_deleterEv:
.LFB2927:
	.cfi_startproc
	endbr64
	pushq	%rbp
	.cfi_def_cfa_offset 16
	.cfi_offset 6, -16
	movq	%rsp, %rbp
	.cfi_def_cfa_register 6
	subq	$16, %rsp
	movq	%rdi, -8(%rbp)
	movq	-8(%rbp), %rax
	movq	%rax, %rdi
	call	_ZSt3getILm1EJPNSt6thread6_StateESt14default_deleteIS1_EEERNSt13tuple_elementIXT_ESt5tupleIJDpT0_EEE4typeERS9_
	leave
	.cfi_def_cfa 7, 8
	ret
	.cfi_endproc
.LFE2927:
	.size	_ZNSt15__uniq_ptr_implINSt6thread6_StateESt14default_deleteIS1_EE10_M_deleterEv, .-_ZNSt15__uniq_ptr_implINSt6thread6_StateESt14default_deleteIS1_EE10_M_deleterEv
	.section	.text._ZNSt11_Tuple_implILm0EJPFvvEEEC2ERKS1_,"axG",@progbits,_ZNSt11_Tuple_implILm0EJPFvvEEEC5ERKS1_,comdat
	.align 2
	.weak	_ZNSt11_Tuple_implILm0EJPFvvEEEC2ERKS1_
	.type	_ZNSt11_Tuple_implILm0EJPFvvEEEC2ERKS1_, @function
_ZNSt11_Tuple_implILm0EJPFvvEEEC2ERKS1_:
.LFB2973:
	.cfi_startproc
	endbr64
	pushq	%rbp
	.cfi_def_cfa_offset 16
	.cfi_offset 6, -16
	movq	%rsp, %rbp
	.cfi_def_cfa_register 6
	subq	$16, %rsp
	movq	%rdi, -8(%rbp)
	movq	%rsi, -16(%rbp)
	movq	-8(%rbp), %rax
	movq	-16(%rbp), %rdx
	movq	%rdx, %rsi
	movq	%rax, %rdi
	call	_ZNSt10_Head_baseILm0EPFvvELb0EEC2ERKS1_
	nop
	leave
	.cfi_def_cfa 7, 8
	ret
	.cfi_endproc
.LFE2973:
	.size	_ZNSt11_Tuple_implILm0EJPFvvEEEC2ERKS1_, .-_ZNSt11_Tuple_implILm0EJPFvvEEEC2ERKS1_
	.weak	_ZNSt11_Tuple_implILm0EJPFvvEEEC1ERKS1_
	.set	_ZNSt11_Tuple_implILm0EJPFvvEEEC1ERKS1_,_ZNSt11_Tuple_implILm0EJPFvvEEEC2ERKS1_
	.section	.text._ZNSt11_Tuple_implILm0EJPNSt6thread6_StateESt14default_deleteIS1_EEEC2Ev,"axG",@progbits,_ZNSt11_Tuple_implILm0EJPNSt6thread6_StateESt14default_deleteIS1_EEEC5Ev,comdat
	.align 2
	.weak	_ZNSt11_Tuple_implILm0EJPNSt6thread6_StateESt14default_deleteIS1_EEEC2Ev
	.type	_ZNSt11_Tuple_implILm0EJPNSt6thread6_StateESt14default_deleteIS1_EEEC2Ev, @function
_ZNSt11_Tuple_implILm0EJPNSt6thread6_StateESt14default_deleteIS1_EEEC2Ev:
.LFB2976:
	.cfi_startproc
	endbr64
	pushq	%rbp
	.cfi_def_cfa_offset 16
	.cfi_offset 6, -16
	movq	%rsp, %rbp
	.cfi_def_cfa_register 6
	subq	$16, %rsp
	movq	%rdi, -8(%rbp)
	movq	-8(%rbp), %rax
	movq	%rax, %rdi
	call	_ZNSt11_Tuple_implILm1EJSt14default_deleteINSt6thread6_StateEEEEC2Ev
	movq	-8(%rbp), %rax
	movq	%rax, %rdi
	call	_ZNSt10_Head_baseILm0EPNSt6thread6_StateELb0EEC2Ev
	nop
	leave
	.cfi_def_cfa 7, 8
	ret
	.cfi_endproc
.LFE2976:
	.size	_ZNSt11_Tuple_implILm0EJPNSt6thread6_StateESt14default_deleteIS1_EEEC2Ev, .-_ZNSt11_Tuple_implILm0EJPNSt6thread6_StateESt14default_deleteIS1_EEEC2Ev
	.weak	_ZNSt11_Tuple_implILm0EJPNSt6thread6_StateESt14default_deleteIS1_EEEC1Ev
	.set	_ZNSt11_Tuple_implILm0EJPNSt6thread6_StateESt14default_deleteIS1_EEEC1Ev,_ZNSt11_Tuple_implILm0EJPNSt6thread6_StateESt14default_deleteIS1_EEEC2Ev
	.section	.text._ZSt12__get_helperILm0EPNSt6thread6_StateEJSt14default_deleteIS1_EEERT0_RSt11_Tuple_implIXT_EJS5_DpT1_EE,"axG",@progbits,_ZSt12__get_helperILm0EPNSt6thread6_StateEJSt14default_deleteIS1_EEERT0_RSt11_Tuple_implIXT_EJS5_DpT1_EE,comdat
	.weak	_ZSt12__get_helperILm0EPNSt6thread6_StateEJSt14default_deleteIS1_EEERT0_RSt11_Tuple_implIXT_EJS5_DpT1_EE
	.type	_ZSt12__get_helperILm0EPNSt6thread6_StateEJSt14default_deleteIS1_EEERT0_RSt11_Tuple_implIXT_EJS5_DpT1_EE, @function
_ZSt12__get_helperILm0EPNSt6thread6_StateEJSt14default_deleteIS1_EEERT0_RSt11_Tuple_implIXT_EJS5_DpT1_EE:
.LFB2978:
	.cfi_startproc
	endbr64
	pushq	%rbp
	.cfi_def_cfa_offset 16
	.cfi_offset 6, -16
	movq	%rsp, %rbp
	.cfi_def_cfa_register 6
	subq	$16, %rsp
	movq	%rdi, -8(%rbp)
	movq	-8(%rbp), %rax
	movq	%rax, %rdi
	call	_ZNSt11_Tuple_implILm0EJPNSt6thread6_StateESt14default_deleteIS1_EEE7_M_headERS5_
	leave
	.cfi_def_cfa 7, 8
	ret
	.cfi_endproc
.LFE2978:
	.size	_ZSt12__get_helperILm0EPNSt6thread6_StateEJSt14default_deleteIS1_EEERT0_RSt11_Tuple_implIXT_EJS5_DpT1_EE, .-_ZSt12__get_helperILm0EPNSt6thread6_StateEJSt14default_deleteIS1_EEERT0_RSt11_Tuple_implIXT_EJS5_DpT1_EE
	.section	.text._ZSt3getILm1EJPNSt6thread6_StateESt14default_deleteIS1_EEERNSt13tuple_elementIXT_ESt5tupleIJDpT0_EEE4typeERS9_,"axG",@progbits,_ZSt3getILm1EJPNSt6thread6_StateESt14default_deleteIS1_EEERNSt13tuple_elementIXT_ESt5tupleIJDpT0_EEE4typeERS9_,comdat
	.weak	_ZSt3getILm1EJPNSt6thread6_StateESt14default_deleteIS1_EEERNSt13tuple_elementIXT_ESt5tupleIJDpT0_EEE4typeERS9_
	.type	_ZSt3getILm1EJPNSt6thread6_StateESt14default_deleteIS1_EEERNSt13tuple_elementIXT_ESt5tupleIJDpT0_EEE4typeERS9_, @function
_ZSt3getILm1EJPNSt6thread6_StateESt14default_deleteIS1_EEERNSt13tuple_elementIXT_ESt5tupleIJDpT0_EEE4typeERS9_:
.LFB2979:
	.cfi_startproc
	endbr64
	pushq	%rbp
	.cfi_def_cfa_offset 16
	.cfi_offset 6, -16
	movq	%rsp, %rbp
	.cfi_def_cfa_register 6
	subq	$16, %rsp
	movq	%rdi, -8(%rbp)
	movq	-8(%rbp), %rax
	movq	%rax, %rdi
	call	_ZSt12__get_helperILm1ESt14default_deleteINSt6thread6_StateEEJEERT0_RSt11_Tuple_implIXT_EJS4_DpT1_EE
	leave
	.cfi_def_cfa 7, 8
	ret
	.cfi_endproc
.LFE2979:
	.size	_ZSt3getILm1EJPNSt6thread6_StateESt14default_deleteIS1_EEERNSt13tuple_elementIXT_ESt5tupleIJDpT0_EEE4typeERS9_, .-_ZSt3getILm1EJPNSt6thread6_StateESt14default_deleteIS1_EEERNSt13tuple_elementIXT_ESt5tupleIJDpT0_EEE4typeERS9_
	.section	.text._ZNSt10_Head_baseILm0EPFvvELb0EEC2ERKS1_,"axG",@progbits,_ZNSt10_Head_baseILm0EPFvvELb0EEC5ERKS1_,comdat
	.align 2
	.weak	_ZNSt10_Head_baseILm0EPFvvELb0EEC2ERKS1_
	.type	_ZNSt10_Head_baseILm0EPFvvELb0EEC2ERKS1_, @function
_ZNSt10_Head_baseILm0EPFvvELb0EEC2ERKS1_:
.LFB3005:
	.cfi_startproc
	endbr64
	pushq	%rbp
	.cfi_def_cfa_offset 16
	.cfi_offset 6, -16
	movq	%rsp, %rbp
	.cfi_def_cfa_register 6
	movq	%rdi, -8(%rbp)
	movq	%rsi, -16(%rbp)
	movq	-16(%rbp), %rax
	movq	(%rax), %rdx
	movq	-8(%rbp), %rax
	movq	%rdx, (%rax)
	nop
	popq	%rbp
	.cfi_def_cfa 7, 8
	ret
	.cfi_endproc
.LFE3005:
	.size	_ZNSt10_Head_baseILm0EPFvvELb0EEC2ERKS1_, .-_ZNSt10_Head_baseILm0EPFvvELb0EEC2ERKS1_
	.weak	_ZNSt10_Head_baseILm0EPFvvELb0EEC1ERKS1_
	.set	_ZNSt10_Head_baseILm0EPFvvELb0EEC1ERKS1_,_ZNSt10_Head_baseILm0EPFvvELb0EEC2ERKS1_
	.section	.text._ZNSt11_Tuple_implILm1EJSt14default_deleteINSt6thread6_StateEEEEC2Ev,"axG",@progbits,_ZNSt11_Tuple_implILm1EJSt14default_deleteINSt6thread6_StateEEEEC5Ev,comdat
	.align 2
	.weak	_ZNSt11_Tuple_implILm1EJSt14default_deleteINSt6thread6_StateEEEEC2Ev
	.type	_ZNSt11_Tuple_implILm1EJSt14default_deleteINSt6thread6_StateEEEEC2Ev, @function
_ZNSt11_Tuple_implILm1EJSt14default_deleteINSt6thread6_StateEEEEC2Ev:
.LFB3008:
	.cfi_startproc
	endbr64
	pushq	%rbp
	.cfi_def_cfa_offset 16
	.cfi_offset 6, -16
	movq	%rsp, %rbp
	.cfi_def_cfa_register 6
	subq	$16, %rsp
	movq	%rdi, -8(%rbp)
	movq	-8(%rbp), %rax
	movq	%rax, %rdi
	call	_ZNSt10_Head_baseILm1ESt14default_deleteINSt6thread6_StateEELb1EEC2Ev
	nop
	leave
	.cfi_def_cfa 7, 8
	ret
	.cfi_endproc
.LFE3008:
	.size	_ZNSt11_Tuple_implILm1EJSt14default_deleteINSt6thread6_StateEEEEC2Ev, .-_ZNSt11_Tuple_implILm1EJSt14default_deleteINSt6thread6_StateEEEEC2Ev
	.weak	_ZNSt11_Tuple_implILm1EJSt14default_deleteINSt6thread6_StateEEEEC1Ev
	.set	_ZNSt11_Tuple_implILm1EJSt14default_deleteINSt6thread6_StateEEEEC1Ev,_ZNSt11_Tuple_implILm1EJSt14default_deleteINSt6thread6_StateEEEEC2Ev
	.section	.text._ZNSt10_Head_baseILm0EPNSt6thread6_StateELb0EEC2Ev,"axG",@progbits,_ZNSt10_Head_baseILm0EPNSt6thread6_StateELb0EEC5Ev,comdat
	.align 2
	.weak	_ZNSt10_Head_baseILm0EPNSt6thread6_StateELb0EEC2Ev
	.type	_ZNSt10_Head_baseILm0EPNSt6thread6_StateELb0EEC2Ev, @function
_ZNSt10_Head_baseILm0EPNSt6thread6_StateELb0EEC2Ev:
.LFB3011:
	.cfi_startproc
	endbr64
	pushq	%rbp
	.cfi_def_cfa_offset 16
	.cfi_offset 6, -16
	movq	%rsp, %rbp
	.cfi_def_cfa_register 6
	movq	%rdi, -8(%rbp)
	movq	-8(%rbp), %rax
	movq	$0, (%rax)
	nop
	popq	%rbp
	.cfi_def_cfa 7, 8
	ret
	.cfi_endproc
.LFE3011:
	.size	_ZNSt10_Head_baseILm0EPNSt6thread6_StateELb0EEC2Ev, .-_ZNSt10_Head_baseILm0EPNSt6thread6_StateELb0EEC2Ev
	.weak	_ZNSt10_Head_baseILm0EPNSt6thread6_StateELb0EEC1Ev
	.set	_ZNSt10_Head_baseILm0EPNSt6thread6_StateELb0EEC1Ev,_ZNSt10_Head_baseILm0EPNSt6thread6_StateELb0EEC2Ev
	.section	.text._ZNSt11_Tuple_implILm0EJPNSt6thread6_StateESt14default_deleteIS1_EEE7_M_headERS5_,"axG",@progbits,_ZNSt11_Tuple_implILm0EJPNSt6thread6_StateESt14default_deleteIS1_EEE7_M_headERS5_,comdat
	.weak	_ZNSt11_Tuple_implILm0EJPNSt6thread6_StateESt14default_deleteIS1_EEE7_M_headERS5_
	.type	_ZNSt11_Tuple_implILm0EJPNSt6thread6_StateESt14default_deleteIS1_EEE7_M_headERS5_, @function
_ZNSt11_Tuple_implILm0EJPNSt6thread6_StateESt14default_deleteIS1_EEE7_M_headERS5_:
.LFB3013:
	.cfi_startproc
	endbr64
	pushq	%rbp
	.cfi_def_cfa_offset 16
	.cfi_offset 6, -16
	movq	%rsp, %rbp
	.cfi_def_cfa_register 6
	subq	$16, %rsp
	movq	%rdi, -8(%rbp)
	movq	-8(%rbp), %rax
	movq	%rax, %rdi
	call	_ZNSt10_Head_baseILm0EPNSt6thread6_StateELb0EE7_M_headERS3_
	leave
	.cfi_def_cfa 7, 8
	ret
	.cfi_endproc
.LFE3013:
	.size	_ZNSt11_Tuple_implILm0EJPNSt6thread6_StateESt14default_deleteIS1_EEE7_M_headERS5_, .-_ZNSt11_Tuple_implILm0EJPNSt6thread6_StateESt14default_deleteIS1_EEE7_M_headERS5_
	.section	.text._ZSt12__get_helperILm1ESt14default_deleteINSt6thread6_StateEEJEERT0_RSt11_Tuple_implIXT_EJS4_DpT1_EE,"axG",@progbits,_ZSt12__get_helperILm1ESt14default_deleteINSt6thread6_StateEEJEERT0_RSt11_Tuple_implIXT_EJS4_DpT1_EE,comdat
	.weak	_ZSt12__get_helperILm1ESt14default_deleteINSt6thread6_StateEEJEERT0_RSt11_Tuple_implIXT_EJS4_DpT1_EE
	.type	_ZSt12__get_helperILm1ESt14default_deleteINSt6thread6_StateEEJEERT0_RSt11_Tuple_implIXT_EJS4_DpT1_EE, @function
_ZSt12__get_helperILm1ESt14default_deleteINSt6thread6_StateEEJEERT0_RSt11_Tuple_implIXT_EJS4_DpT1_EE:
.LFB3014:
	.cfi_startproc
	endbr64
	pushq	%rbp
	.cfi_def_cfa_offset 16
	.cfi_offset 6, -16
	movq	%rsp, %rbp
	.cfi_def_cfa_register 6
	subq	$16, %rsp
	movq	%rdi, -8(%rbp)
	movq	-8(%rbp), %rax
	movq	%rax, %rdi
	call	_ZNSt11_Tuple_implILm1EJSt14default_deleteINSt6thread6_StateEEEE7_M_headERS4_
	leave
	.cfi_def_cfa 7, 8
	ret
	.cfi_endproc
.LFE3014:
	.size	_ZSt12__get_helperILm1ESt14default_deleteINSt6thread6_StateEEJEERT0_RSt11_Tuple_implIXT_EJS4_DpT1_EE, .-_ZSt12__get_helperILm1ESt14default_deleteINSt6thread6_StateEEJEERT0_RSt11_Tuple_implIXT_EJS4_DpT1_EE
	.section	.text._ZNSt10_Head_baseILm1ESt14default_deleteINSt6thread6_StateEELb1EEC2Ev,"axG",@progbits,_ZNSt10_Head_baseILm1ESt14default_deleteINSt6thread6_StateEELb1EEC5Ev,comdat
	.align 2
	.weak	_ZNSt10_Head_baseILm1ESt14default_deleteINSt6thread6_StateEELb1EEC2Ev
	.type	_ZNSt10_Head_baseILm1ESt14default_deleteINSt6thread6_StateEELb1EEC2Ev, @function
_ZNSt10_Head_baseILm1ESt14default_deleteINSt6thread6_StateEELb1EEC2Ev:
.LFB3028:
	.cfi_startproc
	endbr64
	pushq	%rbp
	.cfi_def_cfa_offset 16
	.cfi_offset 6, -16
	movq	%rsp, %rbp
	.cfi_def_cfa_register 6
	movq	%rdi, -8(%rbp)
	nop
	popq	%rbp
	.cfi_def_cfa 7, 8
	ret
	.cfi_endproc
.LFE3028:
	.size	_ZNSt10_Head_baseILm1ESt14default_deleteINSt6thread6_StateEELb1EEC2Ev, .-_ZNSt10_Head_baseILm1ESt14default_deleteINSt6thread6_StateEELb1EEC2Ev
	.weak	_ZNSt10_Head_baseILm1ESt14default_deleteINSt6thread6_StateEELb1EEC1Ev
	.set	_ZNSt10_Head_baseILm1ESt14default_deleteINSt6thread6_StateEELb1EEC1Ev,_ZNSt10_Head_baseILm1ESt14default_deleteINSt6thread6_StateEELb1EEC2Ev
	.section	.text._ZNSt10_Head_baseILm0EPNSt6thread6_StateELb0EE7_M_headERS3_,"axG",@progbits,_ZNSt10_Head_baseILm0EPNSt6thread6_StateELb0EE7_M_headERS3_,comdat
	.weak	_ZNSt10_Head_baseILm0EPNSt6thread6_StateELb0EE7_M_headERS3_
	.type	_ZNSt10_Head_baseILm0EPNSt6thread6_StateELb0EE7_M_headERS3_, @function
_ZNSt10_Head_baseILm0EPNSt6thread6_StateELb0EE7_M_headERS3_:
.LFB3030:
	.cfi_startproc
	endbr64
	pushq	%rbp
	.cfi_def_cfa_offset 16
	.cfi_offset 6, -16
	movq	%rsp, %rbp
	.cfi_def_cfa_register 6
	movq	%rdi, -8(%rbp)
	movq	-8(%rbp), %rax
	popq	%rbp
	.cfi_def_cfa 7, 8
	ret
	.cfi_endproc
.LFE3030:
	.size	_ZNSt10_Head_baseILm0EPNSt6thread6_StateELb0EE7_M_headERS3_, .-_ZNSt10_Head_baseILm0EPNSt6thread6_StateELb0EE7_M_headERS3_
	.section	.text._ZNSt11_Tuple_implILm1EJSt14default_deleteINSt6thread6_StateEEEE7_M_headERS4_,"axG",@progbits,_ZNSt11_Tuple_implILm1EJSt14default_deleteINSt6thread6_StateEEEE7_M_headERS4_,comdat
	.weak	_ZNSt11_Tuple_implILm1EJSt14default_deleteINSt6thread6_StateEEEE7_M_headERS4_
	.type	_ZNSt11_Tuple_implILm1EJSt14default_deleteINSt6thread6_StateEEEE7_M_headERS4_, @function
_ZNSt11_Tuple_implILm1EJSt14default_deleteINSt6thread6_StateEEEE7_M_headERS4_:
.LFB3031:
	.cfi_startproc
	endbr64
	pushq	%rbp
	.cfi_def_cfa_offset 16
	.cfi_offset 6, -16
	movq	%rsp, %rbp
	.cfi_def_cfa_register 6
	subq	$16, %rsp
	movq	%rdi, -8(%rbp)
	movq	-8(%rbp), %rax
	movq	%rax, %rdi
	call	_ZNSt10_Head_baseILm1ESt14default_deleteINSt6thread6_StateEELb1EE7_M_headERS4_
	leave
	.cfi_def_cfa 7, 8
	ret
	.cfi_endproc
.LFE3031:
	.size	_ZNSt11_Tuple_implILm1EJSt14default_deleteINSt6thread6_StateEEEE7_M_headERS4_, .-_ZNSt11_Tuple_implILm1EJSt14default_deleteINSt6thread6_StateEEEE7_M_headERS4_
	.section	.text._ZNSt10_Head_baseILm1ESt14default_deleteINSt6thread6_StateEELb1EE7_M_headERS4_,"axG",@progbits,_ZNSt10_Head_baseILm1ESt14default_deleteINSt6thread6_StateEELb1EE7_M_headERS4_,comdat
	.weak	_ZNSt10_Head_baseILm1ESt14default_deleteINSt6thread6_StateEELb1EE7_M_headERS4_
	.type	_ZNSt10_Head_baseILm1ESt14default_deleteINSt6thread6_StateEELb1EE7_M_headERS4_, @function
_ZNSt10_Head_baseILm1ESt14default_deleteINSt6thread6_StateEELb1EE7_M_headERS4_:
.LFB3034:
	.cfi_startproc
	endbr64
	pushq	%rbp
	.cfi_def_cfa_offset 16
	.cfi_offset 6, -16
	movq	%rsp, %rbp
	.cfi_def_cfa_register 6
	movq	%rdi, -8(%rbp)
	movq	-8(%rbp), %rax
	popq	%rbp
	.cfi_def_cfa 7, 8
	ret
	.cfi_endproc
.LFE3034:
	.size	_ZNSt10_Head_baseILm1ESt14default_deleteINSt6thread6_StateEELb1EE7_M_headERS4_, .-_ZNSt10_Head_baseILm1ESt14default_deleteINSt6thread6_StateEELb1EE7_M_headERS4_
	.weak	_ZTVNSt6thread11_State_implINS_8_InvokerISt5tupleIJPFvvEEEEEEE
	.section	.data.rel.ro.local._ZTVNSt6thread11_State_implINS_8_InvokerISt5tupleIJPFvvEEEEEEE,"awG",@progbits,_ZTVNSt6thread11_State_implINS_8_InvokerISt5tupleIJPFvvEEEEEEE,comdat
	.align 8
	.type	_ZTVNSt6thread11_State_implINS_8_InvokerISt5tupleIJPFvvEEEEEEE, @object
	.size	_ZTVNSt6thread11_State_implINS_8_InvokerISt5tupleIJPFvvEEEEEEE, 40
_ZTVNSt6thread11_State_implINS_8_InvokerISt5tupleIJPFvvEEEEEEE:
	.quad	0
	.quad	_ZTINSt6thread11_State_implINS_8_InvokerISt5tupleIJPFvvEEEEEEE
	.quad	_ZNSt6thread11_State_implINS_8_InvokerISt5tupleIJPFvvEEEEEED1Ev
	.quad	_ZNSt6thread11_State_implINS_8_InvokerISt5tupleIJPFvvEEEEEED0Ev
	.quad	_ZNSt6thread11_State_implINS_8_InvokerISt5tupleIJPFvvEEEEEE6_M_runEv
	.section	.text._ZNSt6thread11_State_implINS_8_InvokerISt5tupleIJPFvvEEEEEED2Ev,"axG",@progbits,_ZNSt6thread11_State_implINS_8_InvokerISt5tupleIJPFvvEEEEEED5Ev,comdat
	.align 2
	.weak	_ZNSt6thread11_State_implINS_8_InvokerISt5tupleIJPFvvEEEEEED2Ev
	.type	_ZNSt6thread11_State_implINS_8_InvokerISt5tupleIJPFvvEEEEEED2Ev, @function
_ZNSt6thread11_State_implINS_8_InvokerISt5tupleIJPFvvEEEEEED2Ev:
.LFB3036:
	.cfi_startproc
	endbr64
	pushq	%rbp
	.cfi_def_cfa_offset 16
	.cfi_offset 6, -16
	movq	%rsp, %rbp
	.cfi_def_cfa_register 6
	subq	$16, %rsp
	movq	%rdi, -8(%rbp)
	leaq	16+_ZTVNSt6thread11_State_implINS_8_InvokerISt5tupleIJPFvvEEEEEEE(%rip), %rdx
	movq	-8(%rbp), %rax
	movq	%rdx, (%rax)
	movq	-8(%rbp), %rax
	movq	%rax, %rdi
	call	_ZNSt6thread6_StateD2Ev@PLT
	nop
	leave
	.cfi_def_cfa 7, 8
	ret
	.cfi_endproc
.LFE3036:
	.size	_ZNSt6thread11_State_implINS_8_InvokerISt5tupleIJPFvvEEEEEED2Ev, .-_ZNSt6thread11_State_implINS_8_InvokerISt5tupleIJPFvvEEEEEED2Ev
	.weak	_ZNSt6thread11_State_implINS_8_InvokerISt5tupleIJPFvvEEEEEED1Ev
	.set	_ZNSt6thread11_State_implINS_8_InvokerISt5tupleIJPFvvEEEEEED1Ev,_ZNSt6thread11_State_implINS_8_InvokerISt5tupleIJPFvvEEEEEED2Ev
	.section	.text._ZNSt6thread11_State_implINS_8_InvokerISt5tupleIJPFvvEEEEEED0Ev,"axG",@progbits,_ZNSt6thread11_State_implINS_8_InvokerISt5tupleIJPFvvEEEEEED5Ev,comdat
	.align 2
	.weak	_ZNSt6thread11_State_implINS_8_InvokerISt5tupleIJPFvvEEEEEED0Ev
	.type	_ZNSt6thread11_State_implINS_8_InvokerISt5tupleIJPFvvEEEEEED0Ev, @function
_ZNSt6thread11_State_implINS_8_InvokerISt5tupleIJPFvvEEEEEED0Ev:
.LFB3038:
	.cfi_startproc
	endbr64
	pushq	%rbp
	.cfi_def_cfa_offset 16
	.cfi_offset 6, -16
	movq	%rsp, %rbp
	.cfi_def_cfa_register 6
	subq	$16, %rsp
	movq	%rdi, -8(%rbp)
	movq	-8(%rbp), %rax
	movq	%rax, %rdi
	call	_ZNSt6thread11_State_implINS_8_InvokerISt5tupleIJPFvvEEEEEED1Ev
	movq	-8(%rbp), %rax
	movl	$16, %esi
	movq	%rax, %rdi
	call	_ZdlPvm@PLT
	leave
	.cfi_def_cfa 7, 8
	ret
	.cfi_endproc
.LFE3038:
	.size	_ZNSt6thread11_State_implINS_8_InvokerISt5tupleIJPFvvEEEEEED0Ev, .-_ZNSt6thread11_State_implINS_8_InvokerISt5tupleIJPFvvEEEEEED0Ev
	.weak	_ZTINSt6thread11_State_implINS_8_InvokerISt5tupleIJPFvvEEEEEEE
	.section	.data.rel.ro._ZTINSt6thread11_State_implINS_8_InvokerISt5tupleIJPFvvEEEEEEE,"awG",@progbits,_ZTINSt6thread11_State_implINS_8_InvokerISt5tupleIJPFvvEEEEEEE,comdat
	.align 8
	.type	_ZTINSt6thread11_State_implINS_8_InvokerISt5tupleIJPFvvEEEEEEE, @object
	.size	_ZTINSt6thread11_State_implINS_8_InvokerISt5tupleIJPFvvEEEEEEE, 24
_ZTINSt6thread11_State_implINS_8_InvokerISt5tupleIJPFvvEEEEEEE:
	.quad	_ZTVN10__cxxabiv120__si_class_type_infoE+16
	.quad	_ZTSNSt6thread11_State_implINS_8_InvokerISt5tupleIJPFvvEEEEEEE
	.quad	_ZTINSt6thread6_StateE
	.weak	_ZTSNSt6thread11_State_implINS_8_InvokerISt5tupleIJPFvvEEEEEEE
	.section	.rodata._ZTSNSt6thread11_State_implINS_8_InvokerISt5tupleIJPFvvEEEEEEE,"aG",@progbits,_ZTSNSt6thread11_State_implINS_8_InvokerISt5tupleIJPFvvEEEEEEE,comdat
	.align 32
	.type	_ZTSNSt6thread11_State_implINS_8_InvokerISt5tupleIJPFvvEEEEEEE, @object
	.size	_ZTSNSt6thread11_State_implINS_8_InvokerISt5tupleIJPFvvEEEEEEE, 59
_ZTSNSt6thread11_State_implINS_8_InvokerISt5tupleIJPFvvEEEEEEE:
	.string	"NSt6thread11_State_implINS_8_InvokerISt5tupleIJPFvvEEEEEEE"
	.text
	.type	_Z41__static_initialization_and_destruction_0ii, @function
_Z41__static_initialization_and_destruction_0ii:
.LFB3039:
	.cfi_startproc
	endbr64
	pushq	%rbp
	.cfi_def_cfa_offset 16
	.cfi_offset 6, -16
	movq	%rsp, %rbp
	.cfi_def_cfa_register 6
	subq	$16, %rsp
	movl	%edi, -4(%rbp)
	movl	%esi, -8(%rbp)
	cmpl	$1, -4(%rbp)
	jne	.L84
	cmpl	$65535, -8(%rbp)
	jne	.L84
	leaq	_ZStL8__ioinit(%rip), %rax
	movq	%rax, %rdi
	call	_ZNSt8ios_base4InitC1Ev@PLT
	leaq	__dso_handle(%rip), %rax
	movq	%rax, %rdx
	leaq	_ZStL8__ioinit(%rip), %rax
	movq	%rax, %rsi
	movq	_ZNSt8ios_base4InitD1Ev@GOTPCREL(%rip), %rax
	movq	%rax, %rdi
	call	__cxa_atexit@PLT
.L84:
	nop
	leave
	.cfi_def_cfa 7, 8
	ret
	.cfi_endproc
.LFE3039:
	.size	_Z41__static_initialization_and_destruction_0ii, .-_Z41__static_initialization_and_destruction_0ii
	.weak	_ZN7SingtonIiE6value_E
	.section	.bss._ZN7SingtonIiE6value_E,"awG",@nobits,_ZN7SingtonIiE6value_E,comdat
	.align 8
	.type	_ZN7SingtonIiE6value_E, @gnu_unique_object
	.size	_ZN7SingtonIiE6value_E, 8
_ZN7SingtonIiE6value_E:
	.zero	8
	.weak	_ZN7SingtonIiE5once_E
	.section	.bss._ZN7SingtonIiE5once_E,"awG",@nobits,_ZN7SingtonIiE5once_E,comdat
	.align 4
	.type	_ZN7SingtonIiE5once_E, @gnu_unique_object
	.size	_ZN7SingtonIiE5once_E, 4
_ZN7SingtonIiE5once_E:
	.zero	4
	.section	.text._ZNSt6thread11_State_implINS_8_InvokerISt5tupleIJPFvvEEEEEE6_M_runEv,"axG",@progbits,_ZNSt6thread11_State_implINS_8_InvokerISt5tupleIJPFvvEEEEEE6_M_runEv,comdat
	.align 2
	.weak	_ZNSt6thread11_State_implINS_8_InvokerISt5tupleIJPFvvEEEEEE6_M_runEv
	.type	_ZNSt6thread11_State_implINS_8_InvokerISt5tupleIJPFvvEEEEEE6_M_runEv, @function
_ZNSt6thread11_State_implINS_8_InvokerISt5tupleIJPFvvEEEEEE6_M_runEv:
.LFB3040:
	.cfi_startproc
	endbr64
	pushq	%rbp
	.cfi_def_cfa_offset 16
	.cfi_offset 6, -16
	movq	%rsp, %rbp
	.cfi_def_cfa_register 6
	subq	$16, %rsp
	movq	%rdi, -8(%rbp)
	movq	-8(%rbp), %rax
	addq	$8, %rax
	movq	%rax, %rdi
	call	_ZNSt6thread8_InvokerISt5tupleIJPFvvEEEEclEv
	nop
	leave
	.cfi_def_cfa 7, 8
	ret
	.cfi_endproc
.LFE3040:
	.size	_ZNSt6thread11_State_implINS_8_InvokerISt5tupleIJPFvvEEEEEE6_M_runEv, .-_ZNSt6thread11_State_implINS_8_InvokerISt5tupleIJPFvvEEEEEE6_M_runEv
	.section	.text._ZNSt6thread8_InvokerISt5tupleIJPFvvEEEEclEv,"axG",@progbits,_ZNSt6thread8_InvokerISt5tupleIJPFvvEEEEclEv,comdat
	.align 2
	.weak	_ZNSt6thread8_InvokerISt5tupleIJPFvvEEEEclEv
	.type	_ZNSt6thread8_InvokerISt5tupleIJPFvvEEEEclEv, @function
_ZNSt6thread8_InvokerISt5tupleIJPFvvEEEEclEv:
.LFB3041:
	.cfi_startproc
	endbr64
	pushq	%rbp
	.cfi_def_cfa_offset 16
	.cfi_offset 6, -16
	movq	%rsp, %rbp
	.cfi_def_cfa_register 6
	subq	$16, %rsp
	movq	%rdi, -8(%rbp)
	movq	-8(%rbp), %rax
	movq	%rax, %rdi
	call	_ZNSt6thread8_InvokerISt5tupleIJPFvvEEEE9_M_invokeIJLm0EEEEvSt12_Index_tupleIJXspT_EEE
	nop
	leave
	.cfi_def_cfa 7, 8
	ret
	.cfi_endproc
.LFE3041:
	.size	_ZNSt6thread8_InvokerISt5tupleIJPFvvEEEEclEv, .-_ZNSt6thread8_InvokerISt5tupleIJPFvvEEEEclEv
	.section	.text._ZNSt6thread8_InvokerISt5tupleIJPFvvEEEE9_M_invokeIJLm0EEEEvSt12_Index_tupleIJXspT_EEE,"axG",@progbits,_ZNSt6thread8_InvokerISt5tupleIJPFvvEEEE9_M_invokeIJLm0EEEEvSt12_Index_tupleIJXspT_EEE,comdat
	.align 2
	.weak	_ZNSt6thread8_InvokerISt5tupleIJPFvvEEEE9_M_invokeIJLm0EEEEvSt12_Index_tupleIJXspT_EEE
	.type	_ZNSt6thread8_InvokerISt5tupleIJPFvvEEEE9_M_invokeIJLm0EEEEvSt12_Index_tupleIJXspT_EEE, @function
_ZNSt6thread8_InvokerISt5tupleIJPFvvEEEE9_M_invokeIJLm0EEEEvSt12_Index_tupleIJXspT_EEE:
.LFB3042:
	.cfi_startproc
	endbr64
	pushq	%rbp
	.cfi_def_cfa_offset 16
	.cfi_offset 6, -16
	movq	%rsp, %rbp
	.cfi_def_cfa_register 6
	subq	$16, %rsp
	movq	%rdi, -8(%rbp)
	movq	-8(%rbp), %rax
	movq	%rax, %rdi
	call	_ZSt4moveIRSt5tupleIJPFvvEEEEONSt16remove_referenceIT_E4typeEOS6_
	movq	%rax, %rdi
	call	_ZSt3getILm0EJPFvvEEEONSt13tuple_elementIXT_ESt5tupleIJDpT0_EEE4typeEOS6_
	movq	%rax, %rdi
	call	_ZSt8__invokeIPFvvEJEENSt15__invoke_resultIT_JDpT0_EE4typeEOS3_DpOS4_
	nop
	leave
	.cfi_def_cfa 7, 8
	ret
	.cfi_endproc
.LFE3042:
	.size	_ZNSt6thread8_InvokerISt5tupleIJPFvvEEEE9_M_invokeIJLm0EEEEvSt12_Index_tupleIJXspT_EEE, .-_ZNSt6thread8_InvokerISt5tupleIJPFvvEEEE9_M_invokeIJLm0EEEEvSt12_Index_tupleIJXspT_EEE
	.section	.text._ZSt4moveIRSt5tupleIJPFvvEEEEONSt16remove_referenceIT_E4typeEOS6_,"axG",@progbits,_ZSt4moveIRSt5tupleIJPFvvEEEEONSt16remove_referenceIT_E4typeEOS6_,comdat
	.weak	_ZSt4moveIRSt5tupleIJPFvvEEEEONSt16remove_referenceIT_E4typeEOS6_
	.type	_ZSt4moveIRSt5tupleIJPFvvEEEEONSt16remove_referenceIT_E4typeEOS6_, @function
_ZSt4moveIRSt5tupleIJPFvvEEEEONSt16remove_referenceIT_E4typeEOS6_:
.LFB3044:
	.cfi_startproc
	endbr64
	pushq	%rbp
	.cfi_def_cfa_offset 16
	.cfi_offset 6, -16
	movq	%rsp, %rbp
	.cfi_def_cfa_register 6
	movq	%rdi, -8(%rbp)
	movq	-8(%rbp), %rax
	popq	%rbp
	.cfi_def_cfa 7, 8
	ret
	.cfi_endproc
.LFE3044:
	.size	_ZSt4moveIRSt5tupleIJPFvvEEEEONSt16remove_referenceIT_E4typeEOS6_, .-_ZSt4moveIRSt5tupleIJPFvvEEEEONSt16remove_referenceIT_E4typeEOS6_
	.section	.text._ZSt3getILm0EJPFvvEEEONSt13tuple_elementIXT_ESt5tupleIJDpT0_EEE4typeEOS6_,"axG",@progbits,_ZSt3getILm0EJPFvvEEEONSt13tuple_elementIXT_ESt5tupleIJDpT0_EEE4typeEOS6_,comdat
	.weak	_ZSt3getILm0EJPFvvEEEONSt13tuple_elementIXT_ESt5tupleIJDpT0_EEE4typeEOS6_
	.type	_ZSt3getILm0EJPFvvEEEONSt13tuple_elementIXT_ESt5tupleIJDpT0_EEE4typeEOS6_, @function
_ZSt3getILm0EJPFvvEEEONSt13tuple_elementIXT_ESt5tupleIJDpT0_EEE4typeEOS6_:
.LFB3045:
	.cfi_startproc
	endbr64
	pushq	%rbp
	.cfi_def_cfa_offset 16
	.cfi_offset 6, -16
	movq	%rsp, %rbp
	.cfi_def_cfa_register 6
	subq	$16, %rsp
	movq	%rdi, -8(%rbp)
	movq	-8(%rbp), %rax
	movq	%rax, %rdi
	call	_ZSt12__get_helperILm0EPFvvEJEERT0_RSt11_Tuple_implIXT_EJS2_DpT1_EE
	movq	%rax, %rdi
	call	_ZSt7forwardIPFvvEEOT_RNSt16remove_referenceIS2_E4typeE
	leave
	.cfi_def_cfa 7, 8
	ret
	.cfi_endproc
.LFE3045:
	.size	_ZSt3getILm0EJPFvvEEEONSt13tuple_elementIXT_ESt5tupleIJDpT0_EEE4typeEOS6_, .-_ZSt3getILm0EJPFvvEEEONSt13tuple_elementIXT_ESt5tupleIJDpT0_EEE4typeEOS6_
	.section	.text._ZSt8__invokeIPFvvEJEENSt15__invoke_resultIT_JDpT0_EE4typeEOS3_DpOS4_,"axG",@progbits,_ZSt8__invokeIPFvvEJEENSt15__invoke_resultIT_JDpT0_EE4typeEOS3_DpOS4_,comdat
	.weak	_ZSt8__invokeIPFvvEJEENSt15__invoke_resultIT_JDpT0_EE4typeEOS3_DpOS4_
	.type	_ZSt8__invokeIPFvvEJEENSt15__invoke_resultIT_JDpT0_EE4typeEOS3_DpOS4_, @function
_ZSt8__invokeIPFvvEJEENSt15__invoke_resultIT_JDpT0_EE4typeEOS3_DpOS4_:
.LFB3046:
	.cfi_startproc
	endbr64
	pushq	%rbp
	.cfi_def_cfa_offset 16
	.cfi_offset 6, -16
	movq	%rsp, %rbp
	.cfi_def_cfa_register 6
	subq	$16, %rsp
	movq	%rdi, -8(%rbp)
	movq	-8(%rbp), %rax
	movq	%rax, %rdi
	call	_ZSt7forwardIPFvvEEOT_RNSt16remove_referenceIS2_E4typeE
	movq	%rax, %rdi
	call	_ZSt13__invoke_implIvPFvvEJEET_St14__invoke_otherOT0_DpOT1_
	nop
	leave
	.cfi_def_cfa 7, 8
	ret
	.cfi_endproc
.LFE3046:
	.size	_ZSt8__invokeIPFvvEJEENSt15__invoke_resultIT_JDpT0_EE4typeEOS3_DpOS4_, .-_ZSt8__invokeIPFvvEJEENSt15__invoke_resultIT_JDpT0_EE4typeEOS3_DpOS4_
	.section	.text._ZSt12__get_helperILm0EPFvvEJEERT0_RSt11_Tuple_implIXT_EJS2_DpT1_EE,"axG",@progbits,_ZSt12__get_helperILm0EPFvvEJEERT0_RSt11_Tuple_implIXT_EJS2_DpT1_EE,comdat
	.weak	_ZSt12__get_helperILm0EPFvvEJEERT0_RSt11_Tuple_implIXT_EJS2_DpT1_EE
	.type	_ZSt12__get_helperILm0EPFvvEJEERT0_RSt11_Tuple_implIXT_EJS2_DpT1_EE, @function
_ZSt12__get_helperILm0EPFvvEJEERT0_RSt11_Tuple_implIXT_EJS2_DpT1_EE:
.LFB3047:
	.cfi_startproc
	endbr64
	pushq	%rbp
	.cfi_def_cfa_offset 16
	.cfi_offset 6, -16
	movq	%rsp, %rbp
	.cfi_def_cfa_register 6
	subq	$16, %rsp
	movq	%rdi, -8(%rbp)
	movq	-8(%rbp), %rax
	movq	%rax, %rdi
	call	_ZNSt11_Tuple_implILm0EJPFvvEEE7_M_headERS2_
	leave
	.cfi_def_cfa 7, 8
	ret
	.cfi_endproc
.LFE3047:
	.size	_ZSt12__get_helperILm0EPFvvEJEERT0_RSt11_Tuple_implIXT_EJS2_DpT1_EE, .-_ZSt12__get_helperILm0EPFvvEJEERT0_RSt11_Tuple_implIXT_EJS2_DpT1_EE
	.section	.text._ZSt7forwardIPFvvEEOT_RNSt16remove_referenceIS2_E4typeE,"axG",@progbits,_ZSt7forwardIPFvvEEOT_RNSt16remove_referenceIS2_E4typeE,comdat
	.weak	_ZSt7forwardIPFvvEEOT_RNSt16remove_referenceIS2_E4typeE
	.type	_ZSt7forwardIPFvvEEOT_RNSt16remove_referenceIS2_E4typeE, @function
_ZSt7forwardIPFvvEEOT_RNSt16remove_referenceIS2_E4typeE:
.LFB3048:
	.cfi_startproc
	endbr64
	pushq	%rbp
	.cfi_def_cfa_offset 16
	.cfi_offset 6, -16
	movq	%rsp, %rbp
	.cfi_def_cfa_register 6
	movq	%rdi, -8(%rbp)
	movq	-8(%rbp), %rax
	popq	%rbp
	.cfi_def_cfa 7, 8
	ret
	.cfi_endproc
.LFE3048:
	.size	_ZSt7forwardIPFvvEEOT_RNSt16remove_referenceIS2_E4typeE, .-_ZSt7forwardIPFvvEEOT_RNSt16remove_referenceIS2_E4typeE
	.section	.text._ZSt13__invoke_implIvPFvvEJEET_St14__invoke_otherOT0_DpOT1_,"axG",@progbits,_ZSt13__invoke_implIvPFvvEJEET_St14__invoke_otherOT0_DpOT1_,comdat
	.weak	_ZSt13__invoke_implIvPFvvEJEET_St14__invoke_otherOT0_DpOT1_
	.type	_ZSt13__invoke_implIvPFvvEJEET_St14__invoke_otherOT0_DpOT1_, @function
_ZSt13__invoke_implIvPFvvEJEET_St14__invoke_otherOT0_DpOT1_:
.LFB3049:
	.cfi_startproc
	endbr64
	pushq	%rbp
	.cfi_def_cfa_offset 16
	.cfi_offset 6, -16
	movq	%rsp, %rbp
	.cfi_def_cfa_register 6
	subq	$16, %rsp
	movq	%rdi, -8(%rbp)
	movq	-8(%rbp), %rax
	movq	%rax, %rdi
	call	_ZSt7forwardIPFvvEEOT_RNSt16remove_referenceIS2_E4typeE
	movq	(%rax), %rax
	call	*%rax
	nop
	leave
	.cfi_def_cfa 7, 8
	ret
	.cfi_endproc
.LFE3049:
	.size	_ZSt13__invoke_implIvPFvvEJEET_St14__invoke_otherOT0_DpOT1_, .-_ZSt13__invoke_implIvPFvvEJEET_St14__invoke_otherOT0_DpOT1_
	.section	.text._ZNSt11_Tuple_implILm0EJPFvvEEE7_M_headERS2_,"axG",@progbits,_ZNSt11_Tuple_implILm0EJPFvvEEE7_M_headERS2_,comdat
	.weak	_ZNSt11_Tuple_implILm0EJPFvvEEE7_M_headERS2_
	.type	_ZNSt11_Tuple_implILm0EJPFvvEEE7_M_headERS2_, @function
_ZNSt11_Tuple_implILm0EJPFvvEEE7_M_headERS2_:
.LFB3050:
	.cfi_startproc
	endbr64
	pushq	%rbp
	.cfi_def_cfa_offset 16
	.cfi_offset 6, -16
	movq	%rsp, %rbp
	.cfi_def_cfa_register 6
	subq	$16, %rsp
	movq	%rdi, -8(%rbp)
	movq	-8(%rbp), %rax
	movq	%rax, %rdi
	call	_ZNSt10_Head_baseILm0EPFvvELb0EE7_M_headERS2_
	leave
	.cfi_def_cfa 7, 8
	ret
	.cfi_endproc
.LFE3050:
	.size	_ZNSt11_Tuple_implILm0EJPFvvEEE7_M_headERS2_, .-_ZNSt11_Tuple_implILm0EJPFvvEEE7_M_headERS2_
	.section	.text._ZNSt10_Head_baseILm0EPFvvELb0EE7_M_headERS2_,"axG",@progbits,_ZNSt10_Head_baseILm0EPFvvELb0EE7_M_headERS2_,comdat
	.weak	_ZNSt10_Head_baseILm0EPFvvELb0EE7_M_headERS2_
	.type	_ZNSt10_Head_baseILm0EPFvvELb0EE7_M_headERS2_, @function
_ZNSt10_Head_baseILm0EPFvvELb0EE7_M_headERS2_:
.LFB3051:
	.cfi_startproc
	endbr64
	pushq	%rbp
	.cfi_def_cfa_offset 16
	.cfi_offset 6, -16
	movq	%rsp, %rbp
	.cfi_def_cfa_register 6
	movq	%rdi, -8(%rbp)
	movq	-8(%rbp), %rax
	popq	%rbp
	.cfi_def_cfa 7, 8
	ret
	.cfi_endproc
.LFE3051:
	.size	_ZNSt10_Head_baseILm0EPFvvELb0EE7_M_headERS2_, .-_ZNSt10_Head_baseILm0EPFvvELb0EE7_M_headERS2_
	.text
	.type	_GLOBAL__sub_I__Z4funcv, @function
_GLOBAL__sub_I__Z4funcv:
.LFB3052:
	.cfi_startproc
	endbr64
	pushq	%rbp
	.cfi_def_cfa_offset 16
	.cfi_offset 6, -16
	movq	%rsp, %rbp
	.cfi_def_cfa_register 6
	movl	$65535, %esi
	movl	$1, %edi
	call	_Z41__static_initialization_and_destruction_0ii
	popq	%rbp
	.cfi_def_cfa 7, 8
	ret
	.cfi_endproc
.LFE3052:
	.size	_GLOBAL__sub_I__Z4funcv, .-_GLOBAL__sub_I__Z4funcv
	.section	.init_array,"aw"
	.align 8
	.quad	_GLOBAL__sub_I__Z4funcv
	.hidden	DW.ref.__gxx_personality_v0
	.weak	DW.ref.__gxx_personality_v0
	.section	.data.rel.local.DW.ref.__gxx_personality_v0,"awG",@progbits,DW.ref.__gxx_personality_v0,comdat
	.align 8
	.type	DW.ref.__gxx_personality_v0, @object
	.size	DW.ref.__gxx_personality_v0, 8
DW.ref.__gxx_personality_v0:
	.quad	__gxx_personality_v0
	.hidden	__dso_handle
	.ident	"GCC: (Ubuntu 11.4.0-1ubuntu1~22.04) 11.4.0"
	.section	.note.GNU-stack,"",@progbits
	.section	.note.gnu.property,"a"
	.align 8
	.long	1f - 0f
	.long	4f - 1f
	.long	5
0:
	.string	"GNU"
1:
	.align 8
	.long	0xc0000002
	.long	3f - 2f
2:
	.long	0x3
3:
	.align 8
4:
